target datalayout = "e-m:e-p270:32:32-p271:32:32-p272:64:64-i64:64-i128:128-f80:128-n8:16:32:64-S128"
target triple = "x86_64-pc-linux-gnu"

@.str = private unnamed_addr constant [30 x i8] c"../openssl/crypto/ec/ec_oct.c\00", align 1

; Function Attrs: nounwind uwtable
define i64 @EC_POINT_point2buf(ptr noundef %0, ptr noundef %1, i32 noundef %2, ptr noundef %3, ptr noundef %4) #0 {
  %6 = alloca i64, align 8
  %7 = alloca ptr, align 8
  %8 = alloca ptr, align 8
  %9 = alloca i32, align 4
  %10 = alloca ptr, align 8
  %11 = alloca ptr, align 8
  %12 = alloca i64, align 8
  %13 = alloca ptr, align 8
  %14 = alloca i32, align 4
  store ptr %0, ptr %7, align 8, !tbaa !3
  store ptr %1, ptr %8, align 8, !tbaa !8
  store i32 %2, ptr %9, align 4, !tbaa !12
  store ptr %3, ptr %10, align 8, !tbaa !35
  store ptr %4, ptr %11, align 8, !tbaa !14
  call void @llvm.lifetime.start.p0(i64 8, ptr %12) #4
  call void @llvm.lifetime.start.p0(i64 8, ptr %13) #4
  %15 = load ptr, ptr %7, align 8, !tbaa !3
  %16 = load ptr, ptr %8, align 8, !tbaa !8
  %17 = load i32, ptr %9, align 4, !tbaa !12
  %18 = call i64 @EC_POINT_point2oct(ptr noundef %15, ptr noundef %16, i32 noundef %17, ptr noundef null, i64 noundef 0, ptr noundef null)
  store i64 %18, ptr %12, align 8, !tbaa !32
  %19 = load i64, ptr %12, align 8, !tbaa !32
  %20 = icmp eq i64 %19, 0
  br i1 %20, label %21, label %22

21:                                               ; preds = %5
  store i64 0, ptr %6, align 8
  store i32 1, ptr %14, align 4
  br label %43

22:                                               ; preds = %5
  %23 = load i64, ptr %12, align 8, !tbaa !32
  %24 = call noalias ptr @CRYPTO_malloc(i64 noundef %23, ptr noundef @.str, i32 noundef 147)
  store ptr %24, ptr %13, align 8, !tbaa !31
  %25 = icmp eq ptr %24, null
  br i1 %25, label %26, label %27

26:                                               ; preds = %22
  store i64 0, ptr %6, align 8
  store i32 1, ptr %14, align 4
  br label %43

27:                                               ; preds = %22
  %28 = load ptr, ptr %7, align 8, !tbaa !3
  %29 = load ptr, ptr %8, align 8, !tbaa !8
  %30 = load i32, ptr %9, align 4, !tbaa !12
  %31 = load ptr, ptr %13, align 8, !tbaa !31
  %32 = load i64, ptr %12, align 8, !tbaa !32
  %33 = load ptr, ptr %11, align 8, !tbaa !14
  %34 = call i64 @EC_POINT_point2oct(ptr noundef %28, ptr noundef %29, i32 noundef %30, ptr noundef %31, i64 noundef %32, ptr noundef %33)
  store i64 %34, ptr %12, align 8, !tbaa !32
  %35 = load i64, ptr %12, align 8, !tbaa !32
  %36 = icmp eq i64 %35, 0
  br i1 %36, label %37, label %39

37:                                               ; preds = %27
  %38 = load ptr, ptr %13, align 8, !tbaa !31
  call void @CRYPTO_free(ptr noundef %38, ptr noundef @.str, i32 noundef 151)
  store i64 0, ptr %6, align 8
  store i32 1, ptr %14, align 4
  br label %43

39:                                               ; preds = %27
  %40 = load ptr, ptr %13, align 8, !tbaa !31
  %41 = load ptr, ptr %10, align 8, !tbaa !35
  store ptr %40, ptr %41, align 8, !tbaa !31
  %42 = load i64, ptr %12, align 8, !tbaa !32
  store i64 %42, ptr %6, align 8
  store i32 1, ptr %14, align 4
  br label %43

43:                                               ; preds = %39, %37, %26, %21
  call void @llvm.lifetime.end.p0(i64 8, ptr %13) #4
  call void @llvm.lifetime.end.p0(i64 8, ptr %12) #4
  %44 = load i64, ptr %6, align 8
  ret i64 %44
}