; Function Attrs: nounwind uwtable
define i64 @EC_POINT_point2buf(ptr noundef %0, ptr noundef %1, i32 noundef %2, ptr noundef writeonly captures(none) %3, ptr noundef %4) local_unnamed_addr #0 {
  %6 = tail call i64 @EC_POINT_point2oct(ptr noundef %0, ptr noundef %1, i32 noundef %2, ptr noundef null, i64 noundef 0, ptr noundef null)
  %7 = icmp eq i64 %6, 0
  br i1 %7, label %16, label %8

8:                                                ; preds = %5
  %9 = tail call noalias ptr @CRYPTO_malloc(i64 noundef %6, ptr noundef nonnull @.str, i32 noundef 147) #2
  %10 = icmp eq ptr %9, null
  br i1 %10, label %16, label %11

11:                                               ; preds = %8
  %12 = tail call i64 @EC_POINT_point2oct(ptr noundef %0, ptr noundef %1, i32 noundef %2, ptr noundef nonnull %9, i64 noundef %6, ptr noundef %4)
  %13 = icmp eq i64 %12, 0
  br i1 %13, label %14, label %15

14:                                               ; preds = %11
  tail call void @CRYPTO_free(ptr noundef nonnull %9, ptr noundef nonnull @.str, i32 noundef 151) #2
  br label %16

15:                                               ; preds = %11
  store ptr %9, ptr %3, align 8, !tbaa !26
  br label %16

16:                                               ; preds = %8, %5, %15, %14
  %.0 = phi i64 [ 0, %14 ], [ %12, %15 ], [ 0, %5 ], [ 0, %8 ]
  ret i64 %.0
}